ARM GAS  C:\Users\Leaned\AppData\Local\Temp\ccGQbPbw.s 			page 1


   1              		.cpu cortex-m4
   2              		.eabi_attribute 27, 1
   3              		.eabi_attribute 28, 1
   4              		.eabi_attribute 20, 1
   5              		.eabi_attribute 21, 1
   6              		.eabi_attribute 23, 3
   7              		.eabi_attribute 24, 1
   8              		.eabi_attribute 25, 1
   9              		.eabi_attribute 26, 1
  10              		.eabi_attribute 30, 2
  11              		.eabi_attribute 34, 1
  12              		.eabi_attribute 18, 4
  13              		.file	"pi_regulator.c"
  14              		.text
  15              	.Ltext0:
  16              		.cfi_sections	.debug_frame
  17              		.section	.text.PiRegulator,"ax",%progbits
  18              		.align	1
  19              		.p2align 4,,15
  20              		.syntax unified
  21              		.thumb
  22              		.thumb_func
  23              		.fpu fpv4-sp-d16
  24              		.type	PiRegulator, %function
  25              	PiRegulator:
  26              	.LFB257:
  27              		.file 1 "pi_regulator.c"
  28              		.loc 1 18 0
  29              		.cfi_startproc
  30              		@ args = 0, pretend = 0, frame = 8
  31              		@ frame_needed = 0, uses_anonymous_args = 0
  32              	.LVL0:
  33 0000 2DE9F041 		push	{r4, r5, r6, r7, r8, lr}
  34              		.cfi_def_cfa_offset 24
  35              		.cfi_offset 4, -24
  36              		.cfi_offset 5, -20
  37              		.cfi_offset 6, -16
  38              		.cfi_offset 7, -12
  39              		.cfi_offset 8, -8
  40              		.cfi_offset 14, -4
  41              	.LBB48:
  42              	.LBB49:
  43              		.file 2 "../../lib/e-puck2_main-processor/ChibiOS//os/rt/include/chregistry.h"
  44              		.loc 2 135 0
  45 0004 154C     		ldr	r4, .L7
  46              	.LBE49:
  47              	.LBE48:
  48              		.loc 1 18 0
  49 0006 164B     		ldr	r3, .L7+4
  50              	.LBB52:
  51              	.LBB50:
  52              		.loc 2 135 0
  53 0008 A269     		ldr	r2, [r4, #24]
  54 000a 1649     		ldr	r1, .L7+8
  55              	.LBE50:
  56              	.LBE52:
  57              		.loc 1 18 0
ARM GAS  C:\Users\Leaned\AppData\Local\Temp\ccGQbPbw.s 			page 2


  58 000c 1B68     		ldr	r3, [r3]
  59              	.LBB53:
  60              	.LBB54:
  61              	.LBB55:
  62              	.LBB56:
  63              		.file 3 "../../lib/e-puck2_main-processor/ChibiOS//os/rt/include/chsys.h"
  64              		.loc 3 367 0
  65 000e DFF85880 		ldr	r8, .L7+12
  66              	.LBE56:
  67              	.LBE55:
  68              	.LBE54:
  69              	.LBE53:
  70              	.LBB81:
  71              	.LBB51:
  72              		.loc 2 135 0
  73 0012 9161     		str	r1, [r2, #24]
  74              	.LBE51:
  75              	.LBE81:
  76              		.loc 1 18 0
  77 0014 82B0     		sub	sp, sp, #8
  78              		.cfi_def_cfa_offset 32
  79              	.LBB82:
  80              	.LBB79:
  81              	.LBB65:
  82              	.LBB66:
  83              	.LBB67:
  84              	.LBB68:
  85              	.LBB69:
  86              		.file 4 "../../lib/e-puck2_main-processor/ChibiOS//os/ext/CMSIS/include/core_cmFunc.h"
  87              		.loc 4 546 0
  88 0016 2027     		movs	r7, #32
  89              	.LBE69:
  90              	.LBE68:
  91              	.LBE67:
  92              	.LBE66:
  93              	.LBE65:
  94              	.LBE79:
  95              	.LBE82:
  96              		.loc 1 18 0
  97 0018 0193     		str	r3, [sp, #4]
  98              	.LVL1:
  99              	.LBB83:
 100              	.LBB80:
 101              	.LBB74:
 102              	.LBB63:
 103              	.LBB57:
 104              	.LBB58:
 105              	.LBB59:
 106              		.loc 4 546 0
 107 001a 0026     		movs	r6, #0
 108              	.LVL2:
 109              	.L3:
 110              	.LBE59:
 111              	.LBE58:
 112              	.LBE57:
 113              	.LBE63:
 114              	.LBE74:
ARM GAS  C:\Users\Leaned\AppData\Local\Temp\ccGQbPbw.s 			page 3


 115              	.LBB75:
 116              	.LBB73:
 117              	.LBB72:
 118              	.LBB71:
 119              	.LBB70:
 120              		.loc 4 546 0 is_stmt 0 discriminator 1
 121              		.syntax unified
 122              	@ 546 "../../lib/e-puck2_main-processor/ChibiOS//os/ext/CMSIS/include/core_cmFunc.h" 1
 123 001c 87F31188 		MSR basepri, r7
 124              	@ 0 "" 2
 125              	.LVL3:
 126              		.thumb
 127              		.syntax unified
 128              	.LBE70:
 129              	.LBE71:
 130              	.LBE72:
 131              		.loc 3 349 0 is_stmt 1 discriminator 1
 132 0020 FFF7FEFF 		bl	_stats_start_measure_crit_thd
 133              	.LVL4:
 134              		.loc 3 350 0 discriminator 1
 135 0024 FFF7FEFF 		bl	_dbg_check_lock
 136              	.LVL5:
 137              	.LBE73:
 138              	.LBE75:
 139              	.LBB76:
 140              	.LBB77:
 141              		.file 5 "../../lib/e-puck2_main-processor/ChibiOS//os/rt/include/chvt.h"
 142              		.loc 5 231 0 discriminator 1
 143 0028 A56A     		ldr	r5, [r4, #40]
 144              	.LBE77:
 145              	.LBE76:
 146              	.LBB78:
 147              	.LBB64:
 148              		.loc 3 360 0 discriminator 1
 149 002a FFF7FEFF 		bl	_dbg_check_unlock
 150              	.LVL6:
 151              		.loc 3 361 0 discriminator 1
 152 002e FFF7FEFF 		bl	_stats_stop_measure_crit_thd
 153              	.LVL7:
 154              		.loc 3 367 0 discriminator 1
 155 0032 2368     		ldr	r3, [r4]
 156 0034 A342     		cmp	r3, r4
 157 0036 07D0     		beq	.L2
 158              		.loc 3 367 0 is_stmt 0
 159 0038 A269     		ldr	r2, [r4, #24]
 160 003a 9B68     		ldr	r3, [r3, #8]
 161 003c 9268     		ldr	r2, [r2, #8]
 162 003e 9A42     		cmp	r2, r3
 163 0040 02D2     		bcs	.L2
 164 0042 4046     		mov	r0, r8
 165 0044 FFF7FEFF 		bl	chSysHalt
 166              	.LVL8:
 167              	.L2:
 168              	.LBB62:
 169              	.LBB61:
 170              	.LBB60:
 171              		.loc 4 546 0 is_stmt 1
ARM GAS  C:\Users\Leaned\AppData\Local\Temp\ccGQbPbw.s 			page 4


 172              		.syntax unified
 173              	@ 546 "../../lib/e-puck2_main-processor/ChibiOS//os/ext/CMSIS/include/core_cmFunc.h" 1
 174 0048 86F31188 		MSR basepri, r6
 175              	@ 0 "" 2
 176              	.LVL9:
 177              		.thumb
 178              		.syntax unified
 179              	.LBE60:
 180              	.LBE61:
 181              	.LBE62:
 182              	.LBE64:
 183              	.LBE78:
 184              	.LBE80:
 185              	.LBE83:
 186              		.loc 1 31 0
 187 004c FFF7FEFF 		bl	get_distance_cm
 188              	.LVL10:
 189              		.loc 1 41 0
 190 0050 05F10A01 		add	r1, r5, #10
 191 0054 2846     		mov	r0, r5
 192 0056 FFF7FEFF 		bl	chThdSleepUntilWindowed
 193              	.LVL11:
 194 005a DFE7     		b	.L3
 195              	.L8:
 196              		.align	2
 197              	.L7:
 198 005c 00000000 		.word	ch
 199 0060 00000000 		.word	__stack_chk_guard
 200 0064 00000000 		.word	.LANCHOR0
 201 0068 00000000 		.word	.LANCHOR1
 202              		.cfi_endproc
 203              	.LFE257:
 204              		.size	PiRegulator, .-PiRegulator
 205              		.section	.text.pi_regulator_start,"ax",%progbits
 206              		.align	1
 207              		.p2align 4,,15
 208              		.global	pi_regulator_start
 209              		.syntax unified
 210              		.thumb
 211              		.thumb_func
 212              		.fpu fpv4-sp-d16
 213              		.type	pi_regulator_start, %function
 214              	pi_regulator_start:
 215              	.LFB258:
 216              		.loc 1 45 0
 217              		.cfi_startproc
 218              		@ args = 0, pretend = 0, frame = 8
 219              		@ frame_needed = 0, uses_anonymous_args = 0
 220 0000 10B5     		push	{r4, lr}
 221              		.cfi_def_cfa_offset 8
 222              		.cfi_offset 4, -8
 223              		.cfi_offset 14, -4
 224 0002 0A4C     		ldr	r4, .L13
 225              		.loc 1 46 0
 226 0004 0A4B     		ldr	r3, .L13+4
 227              		.loc 1 45 0
 228 0006 2268     		ldr	r2, [r4]
ARM GAS  C:\Users\Leaned\AppData\Local\Temp\ccGQbPbw.s 			page 5


 229              		.loc 1 46 0
 230 0008 0A48     		ldr	r0, .L13+8
 231              		.loc 1 45 0
 232 000a 84B0     		sub	sp, sp, #16
 233              		.cfi_def_cfa_offset 24
 234              		.loc 1 46 0
 235 000c 4FF41E71 		mov	r1, #632
 236              		.loc 1 45 0
 237 0010 0392     		str	r2, [sp, #12]
 238              		.loc 1 46 0
 239 0012 0022     		movs	r2, #0
 240 0014 0092     		str	r2, [sp]
 241 0016 4022     		movs	r2, #64
 242 0018 FFF7FEFF 		bl	chThdCreateStatic
 243              	.LVL12:
 244              		.loc 1 47 0
 245 001c 039A     		ldr	r2, [sp, #12]
 246 001e 2368     		ldr	r3, [r4]
 247 0020 9A42     		cmp	r2, r3
 248 0022 01D1     		bne	.L12
 249 0024 04B0     		add	sp, sp, #16
 250              		.cfi_remember_state
 251              		.cfi_def_cfa_offset 8
 252              		@ sp needed
 253 0026 10BD     		pop	{r4, pc}
 254              	.L12:
 255              		.cfi_restore_state
 256 0028 FFF7FEFF 		bl	__stack_chk_fail
 257              	.LVL13:
 258              	.L14:
 259              		.align	2
 260              	.L13:
 261 002c 00000000 		.word	__stack_chk_guard
 262 0030 00000000 		.word	PiRegulator
 263 0034 00000000 		.word	.LANCHOR2
 264              		.cfi_endproc
 265              	.LFE258:
 266              		.size	pi_regulator_start, .-pi_regulator_start
 267              		.section	.bss.waPiRegulator,"aw",%nobits
 268              		.align	3
 269              		.set	.LANCHOR2,. + 0
 270              		.type	waPiRegulator, %object
 271              		.size	waPiRegulator, 632
 272              	waPiRegulator:
 273 0000 00000000 		.space	632
 273      00000000 
 273      00000000 
 273      00000000 
 273      00000000 
 274              		.section	.rodata.__FUNCTION__.11848,"a",%progbits
 275              		.align	2
 276              		.set	.LANCHOR0,. + 0
 277              		.type	__FUNCTION__.11848, %object
 278              		.size	__FUNCTION__.11848, 12
 279              	__FUNCTION__.11848:
 280 0000 50695265 		.ascii	"PiRegulator\000"
 280      67756C61 
ARM GAS  C:\Users\Leaned\AppData\Local\Temp\ccGQbPbw.s 			page 6


 280      746F7200 
 281              		.section	.rodata.__func__.7153,"a",%progbits
 282              		.align	2
 283              		.set	.LANCHOR1,. + 0
 284              		.type	__func__.7153, %object
 285              		.size	__func__.7153, 12
 286              	__func__.7153:
 287 0000 63685379 		.ascii	"chSysUnlock\000"
 287      73556E6C 
 287      6F636B00 
 288              		.text
 289              	.Letext0:
 290              		.file 6 "c:\\users\\leaned\\desktop\\eclipse\\eclipse_e-puck2\\tools\\gcc-arm-none-eabi-7-2017-q4-
 291              		.file 7 "c:\\users\\leaned\\desktop\\eclipse\\eclipse_e-puck2\\tools\\gcc-arm-none-eabi-7-2017-q4-
 292              		.file 8 "c:\\users\\leaned\\desktop\\eclipse\\eclipse_e-puck2\\tools\\gcc-arm-none-eabi-7-2017-q4-
 293              		.file 9 "../../lib/e-puck2_main-processor/ChibiOS//os/rt/ports/ARMCMx/compilers/GCC/chtypes.h"
 294              		.file 10 "../../lib/e-puck2_main-processor/ChibiOS//os/rt/include/chsystypes.h"
 295              		.file 11 "../../lib/e-puck2_main-processor/ChibiOS//os/rt/include/chschd.h"
 296              		.file 12 "../../lib/e-puck2_main-processor/ChibiOS//os/ext/CMSIS/include/core_cm4.h"
 297              		.file 13 "../../lib/e-puck2_main-processor/ChibiOS//os/ext/CMSIS/ST/system_stm32f4xx.h"
 298              		.file 14 "../../lib/e-puck2_main-processor/ChibiOS//os/ext/CMSIS/ST/stm32f407xx.h"
 299              		.file 15 "../../lib/e-puck2_main-processor/ChibiOS//os/rt/ports/ARMCMx/chcore.h"
 300              		.file 16 "../../lib/e-puck2_main-processor/ChibiOS//os/rt/ports/ARMCMx/chcore_v7m.h"
 301              		.file 17 "../../lib/e-puck2_main-processor/ChibiOS//os/rt/include/chdebug.h"
 302              		.file 18 "../../lib/e-puck2_main-processor/ChibiOS//os/rt/include/chtm.h"
 303              		.file 19 "../../lib/e-puck2_main-processor/ChibiOS//os/rt/include/chstats.h"
 304              		.file 20 "../../lib/e-puck2_main-processor/ChibiOS//os/rt/include/chsem.h"
 305              		.file 21 "../../lib/e-puck2_main-processor/ChibiOS//os/rt/include/chmtx.h"
 306              		.file 22 "../../lib/e-puck2_main-processor/ChibiOS//os/rt/include/chevents.h"
 307              		.file 23 "../../lib/e-puck2_main-processor/ChibiOS//os/rt/include/chqueues.h"
 308              		.file 24 "../../lib/e-puck2_main-processor/ChibiOS//os/hal/ports/STM32/STM32F4xx/stm32_dma.h"
 309              		.file 25 "../../lib/e-puck2_main-processor/ChibiOS//os/hal/include/hal_ioblock.h"
 310              		.file 26 "../../lib/e-puck2_main-processor/ChibiOS//os/hal/ports/STM32/LLD/GPIOv2/pal_lld.h"
 311              		.file 27 "../../lib/e-puck2_main-processor/ChibiOS//os/hal/include/adc.h"
 312              		.file 28 "../../lib/e-puck2_main-processor/ChibiOS//os/hal/ports/STM32/STM32F4xx/adc_lld.h"
 313              		.file 29 "../../lib/e-puck2_main-processor/ChibiOS//os/hal/include/can.h"
 314              		.file 30 "../../lib/e-puck2_main-processor/ChibiOS//os/hal/ports/STM32/LLD/can_lld.h"
 315              		.file 31 "../../lib/e-puck2_main-processor/ChibiOS//os/hal/include/dac.h"
 316              		.file 32 "../../lib/e-puck2_main-processor/ChibiOS//os/hal/ports/STM32/LLD/DACv1/dac_lld.h"
 317              		.file 33 "../../lib/e-puck2_main-processor/ChibiOS//os/hal/include/ext.h"
 318              		.file 34 "../../lib/e-puck2_main-processor/ChibiOS//os/hal/ports/STM32/LLD/ext_lld.h"
 319              		.file 35 "../../lib/e-puck2_main-processor/ChibiOS//os/hal/include/gpt.h"
 320              		.file 36 "../../lib/e-puck2_main-processor/ChibiOS//os/hal/ports/STM32/LLD/TIMv1/gpt_lld.h"
 321              		.file 37 "../../lib/e-puck2_main-processor/ChibiOS//os/hal/ports/STM32/LLD/TIMv1/stm32_tim.h"
 322              		.file 38 "../../lib/e-puck2_main-processor/ChibiOS//os/hal/include/i2c.h"
 323              		.file 39 "../../lib/e-puck2_main-processor/ChibiOS//os/hal/ports/STM32/LLD/I2Cv1/i2c_lld.h"
 324              		.file 40 "../../lib/e-puck2_main-processor/ChibiOS//os/hal/include/i2s.h"
 325              		.file 41 "../../lib/e-puck2_main-processor/ChibiOS//os/hal/ports/STM32/LLD/SPIv1/i2s_lld.h"
 326              		.file 42 "../../lib/e-puck2_main-processor/ChibiOS//os/hal/include/pwm.h"
 327              		.file 43 "../../lib/e-puck2_main-processor/ChibiOS//os/hal/ports/STM32/LLD/TIMv1/pwm_lld.h"
 328              		.file 44 "../../lib/e-puck2_main-processor/ChibiOS//os/hal/include/serial.h"
 329              		.file 45 "../../lib/e-puck2_main-processor/ChibiOS//os/hal/ports/STM32/LLD/USARTv1/serial_lld.h"
 330              		.file 46 "../../lib/e-puck2_main-processor/ChibiOS//os/hal/include/sdc.h"
 331              		.file 47 "../../lib/e-puck2_main-processor/ChibiOS//os/hal/ports/STM32/LLD/sdc_lld.h"
 332              		.file 48 "../../lib/e-puck2_main-processor/ChibiOS//os/hal/include/spi.h"
 333              		.file 49 "../../lib/e-puck2_main-processor/ChibiOS//os/hal/ports/STM32/LLD/SPIv1/spi_lld.h"
 334              		.file 50 "../../lib/e-puck2_main-processor/ChibiOS//os/hal/include/usb.h"
ARM GAS  C:\Users\Leaned\AppData\Local\Temp\ccGQbPbw.s 			page 7


 335              		.file 51 "../../lib/e-puck2_main-processor/ChibiOS//os/hal/ports/STM32/LLD/OTGv1/usb_lld.h"
 336              		.file 52 "../../lib/e-puck2_main-processor/ChibiOS//os/hal/ports/STM32/LLD/OTGv1/stm32_otg.h"
 337              		.file 53 "../../lib/e-puck2_main-processor/ChibiOS//os/hal/include/serial_usb.h"
 338              		.file 54 "c:\\users\\leaned\\desktop\\eclipse\\eclipse_e-puck2\\tools\\gcc-arm-none-eabi-7-2017-q4
 339              		.file 55 "c:\\users\\leaned\\desktop\\eclipse\\eclipse_e-puck2\\tools\\gcc-arm-none-eabi-7-2017-q4
 340              		.file 56 "c:\\users\\leaned\\desktop\\eclipse\\eclipse_e-puck2\\tools\\gcc-arm-none-eabi-7-2017-q4
 341              		.file 57 "c:\\users\\leaned\\desktop\\eclipse\\eclipse_e-puck2\\tools\\gcc-arm-none-eabi-7-2017-q4
 342              		.file 58 "../../lib/e-puck2_main-processor/src/usbcfg.h"
 343              		.file 59 "../../lib/e-puck2_main-processor/ChibiOS_ext/os/hal/include/../ports/STM32/STM32F4xx/dcm
 344              		.file 60 "c:\\users\\leaned\\desktop\\eclipse\\eclipse_e-puck2\\tools\\gcc-arm-none-eabi-7-2017-q4
 345              		.file 61 "../../lib/e-puck2_main-processor/src/msgbus/messagebus.h"
 346              		.file 62 "c:\\users\\leaned\\desktop\\eclipse\\eclipse_e-puck2\\tools\\gcc-arm-none-eabi-7-2017-q4
 347              		.file 63 "../../lib/e-puck2_main-processor/src/parameter/parameter.h"
 348              		.file 64 "./main.h"
 349              		.file 65 "../../lib/e-puck2_main-processor/ChibiOS//os/rt/include/chthreads.h"
 350              		.file 66 "./process_image.h"