ARM GAS  C:\Users\Leaned\AppData\Local\Temp\ccpX8rAs.s 			page 1


   1              		.cpu cortex-m4
   2              		.eabi_attribute 27, 1
   3              		.eabi_attribute 28, 1
   4              		.eabi_attribute 20, 1
   5              		.eabi_attribute 21, 1
   6              		.eabi_attribute 23, 3
   7              		.eabi_attribute 24, 1
   8              		.eabi_attribute 25, 1
   9              		.eabi_attribute 26, 1
  10              		.eabi_attribute 30, 2
  11              		.eabi_attribute 34, 1
  12              		.eabi_attribute 18, 4
  13              		.file	"process_image.c"
  14              		.text
  15              	.Ltext0:
  16              		.cfi_sections	.debug_frame
  17              		.section	.text.ProcessImage,"ax",%progbits
  18              		.align	1
  19              		.p2align 4,,15
  20              		.syntax unified
  21              		.thumb
  22              		.thumb_func
  23              		.fpu fpv4-sp-d16
  24              		.type	ProcessImage, %function
  25              	ProcessImage:
  26              	.LFB258:
  27              		.file 1 "process_image.c"
  28              		.loc 1 52 0
  29              		.cfi_startproc
  30              		@ args = 0, pretend = 0, frame = 8
  31              		@ frame_needed = 0, uses_anonymous_args = 0
  32              	.LVL0:
  33 0000 30B5     		push	{r4, r5, lr}
  34              		.cfi_def_cfa_offset 12
  35              		.cfi_offset 4, -12
  36              		.cfi_offset 5, -8
  37              		.cfi_offset 14, -4
  38              	.LBB36:
  39              	.LBB37:
  40              		.file 2 "../../lib/e-puck2_main-processor/ChibiOS//os/rt/include/chregistry.h"
  41              		.loc 2 135 0
  42 0002 104A     		ldr	r2, .L9
  43              	.LBE37:
  44              	.LBE36:
  45              		.loc 1 52 0
  46 0004 104B     		ldr	r3, .L9+4
  47              	.LBB40:
  48              	.LBB38:
  49              		.loc 2 135 0
  50 0006 9269     		ldr	r2, [r2, #24]
  51 0008 1049     		ldr	r1, .L9+8
  52              	.LBE38:
  53              	.LBE40:
  54              		.loc 1 52 0
  55 000a 1B68     		ldr	r3, [r3]
  56 000c 104D     		ldr	r5, .L9+12
  57              	.LBB41:
ARM GAS  C:\Users\Leaned\AppData\Local\Temp\ccpX8rAs.s 			page 2


  58              	.LBB42:
  59              	.LBB43:
  60              		.file 3 "../../lib/e-puck2_main-processor/ChibiOS//os/rt/include/chbsem.h"
  61              		.loc 3 143 0
  62 000e 114C     		ldr	r4, .L9+16
  63              	.LBE43:
  64              	.LBE42:
  65              	.LBE41:
  66              	.LBB48:
  67              	.LBB39:
  68              		.loc 2 135 0
  69 0010 9161     		str	r1, [r2, #24]
  70              	.LBE39:
  71              	.LBE48:
  72              		.loc 1 52 0
  73 0012 83B0     		sub	sp, sp, #12
  74              		.cfi_def_cfa_offset 24
  75              		.loc 1 52 0
  76 0014 0193     		str	r3, [sp, #4]
  77              	.LVL1:
  78              	.L4:
  79              	.LBB49:
  80              	.LBB45:
  81              	.LBB44:
  82              		.loc 3 143 0
  83 0016 2046     		mov	r0, r4
  84 0018 FFF7FEFF 		bl	chSemWait
  85              	.LVL2:
  86              	.LBE44:
  87              	.LBE45:
  88              		.loc 1 65 0
  89 001c FFF7FEFF 		bl	dcmi_get_last_image_ptr
  90              	.LVL3:
  91              	.LBB46:
  92              		.loc 1 67 0
  93 0020 0023     		movs	r3, #0
  94              	.LBE46:
  95              		.loc 1 66 0
  96 0022 1946     		mov	r1, r3
  97              	.LVL4:
  98              	.L3:
  99              	.LBB47:
 100              		.loc 1 69 0
 101 0024 C25C     		ldrb	r2, [r0, r3]	@ zero_extendqisi2
 102              		.loc 1 70 0
 103 0026 02F0F802 		and	r2, r2, #248
 104 002a 132A     		cmp	r2, #19
 105              		.loc 1 71 0
 106 002c 98BF     		it	ls
 107 002e 0131     		addls	r1, r1, #1
 108              	.LVL5:
 109              		.loc 1 67 0
 110 0030 03F10203 		add	r3, r3, #2
 111              	.LVL6:
 112              		.loc 1 71 0
 113 0034 98BF     		it	ls
 114 0036 89B2     		uxthls	r1, r1
ARM GAS  C:\Users\Leaned\AppData\Local\Temp\ccpX8rAs.s 			page 3


 115              	.LVL7:
 116              		.loc 1 67 0
 117 0038 B3F5A06F 		cmp	r3, #1280
 118 003c F2D1     		bne	.L3
 119              	.LBE47:
 120              		.loc 1 95 0
 121 003e 2980     		strh	r1, [r5]	@ movhi
 122              	.LVL8:
 123              	.LBE49:
 124              		.loc 1 61 0
 125 0040 E9E7     		b	.L4
 126              	.L10:
 127 0042 00BF     		.align	2
 128              	.L9:
 129 0044 00000000 		.word	ch
 130 0048 00000000 		.word	__stack_chk_guard
 131 004c 00000000 		.word	.LANCHOR0
 132 0050 00000000 		.word	.LANCHOR2
 133 0054 00000000 		.word	.LANCHOR1
 134              		.cfi_endproc
 135              	.LFE258:
 136              		.size	ProcessImage, .-ProcessImage
 137              		.section	.text.CaptureImage,"ax",%progbits
 138              		.align	1
 139              		.p2align 4,,15
 140              		.syntax unified
 141              		.thumb
 142              		.thumb_func
 143              		.fpu fpv4-sp-d16
 144              		.type	CaptureImage, %function
 145              	CaptureImage:
 146              	.LFB257:
 147              		.loc 1 24 0
 148              		.cfi_startproc
 149              		@ Volatile: function does not return.
 150              		@ args = 0, pretend = 0, frame = 8
 151              		@ frame_needed = 0, uses_anonymous_args = 0
 152              	.LVL9:
 153 0000 80B5     		push	{r7, lr}
 154              		.cfi_def_cfa_offset 8
 155              		.cfi_offset 7, -8
 156              		.cfi_offset 14, -4
 157              	.LBB66:
 158              	.LBB67:
 159              		.loc 2 135 0
 160 0002 234C     		ldr	r4, .L17
 161              	.LBE67:
 162              	.LBE66:
 163              		.loc 1 24 0
 164 0004 234A     		ldr	r2, .L17+4
 165              	.LBB70:
 166              	.LBB68:
 167              		.loc 2 135 0
 168 0006 A369     		ldr	r3, [r4, #24]
 169 0008 2349     		ldr	r1, .L17+8
 170              	.LBE68:
 171              	.LBE70:
ARM GAS  C:\Users\Leaned\AppData\Local\Temp\ccpX8rAs.s 			page 4


 172              		.loc 1 24 0
 173 000a 1668     		ldr	r6, [r2]
 174              	.LBB71:
 175              	.LBB69:
 176              		.loc 2 135 0
 177 000c 9961     		str	r1, [r3, #24]
 178              	.LBE69:
 179              	.LBE71:
 180              		.loc 1 24 0
 181 000e 86B0     		sub	sp, sp, #24
 182              		.cfi_def_cfa_offset 32
 183              		.loc 1 30 0
 184 0010 0223     		movs	r3, #2
 185 0012 2025     		movs	r5, #32
 186 0014 0A22     		movs	r2, #10
 187 0016 0021     		movs	r1, #0
 188 0018 0093     		str	r3, [sp]
 189              		.loc 1 24 0
 190 001a 0596     		str	r6, [sp, #20]
 191              		.loc 1 30 0
 192 001c 4FF42073 		mov	r3, #640
 193 0020 CDE90155 		strd	r5, r5, [sp, #4]
 194 0024 3020     		movs	r0, #48
 195              	.LVL10:
 196 0026 1D4E     		ldr	r6, .L17+12
 197              	.LBB72:
 198              	.LBB73:
 199              	.LBB74:
 200              	.LBB75:
 201              		.file 4 "../../lib/e-puck2_main-processor/ChibiOS//os/rt/include/chsys.h"
 202              		.loc 4 367 0
 203 0028 1D4F     		ldr	r7, .L17+16
 204              	.LBE75:
 205              	.LBE74:
 206              	.LBE73:
 207              	.LBE72:
 208              		.loc 1 30 0
 209 002a FFF7FEFF 		bl	po8030_advanced_config
 210              	.LVL11:
 211              		.loc 1 31 0
 212 002e FFF7FEFF 		bl	dcmi_enable_double_buffering
 213              	.LVL12:
 214              		.loc 1 32 0
 215 0032 0020     		movs	r0, #0
 216 0034 FFF7FEFF 		bl	dcmi_set_capture_mode
 217              	.LVL13:
 218              	.LBB93:
 219              	.LBB90:
 220              	.LBB80:
 221              	.LBB81:
 222              		.loc 3 271 0
 223 0038 B046     		mov	r8, r6
 224              	.LBE81:
 225              	.LBE80:
 226              	.LBE90:
 227              	.LBE93:
 228              		.loc 1 33 0
ARM GAS  C:\Users\Leaned\AppData\Local\Temp\ccpX8rAs.s 			page 5


 229 003a FFF7FEFF 		bl	dcmi_prepare
 230              	.LVL14:
 231 003e 13E0     		b	.L14
 232              	.LVL15:
 233              	.L12:
 234              	.LBB94:
 235              	.LBB91:
 236              		.loc 3 286 0
 237 0040 FFF7FEFF 		bl	chSchRescheduleS
 238              	.LVL16:
 239              	.LBB83:
 240              	.LBB79:
 241              		.loc 4 360 0
 242 0044 FFF7FEFF 		bl	_dbg_check_unlock
 243              	.LVL17:
 244              		.loc 4 361 0
 245 0048 FFF7FEFF 		bl	_stats_stop_measure_crit_thd
 246              	.LVL18:
 247              		.loc 4 367 0
 248 004c 2368     		ldr	r3, [r4]
 249 004e A342     		cmp	r3, r4
 250 0050 07D0     		beq	.L13
 251 0052 A269     		ldr	r2, [r4, #24]
 252 0054 9B68     		ldr	r3, [r3, #8]
 253 0056 9268     		ldr	r2, [r2, #8]
 254 0058 9A42     		cmp	r2, r3
 255 005a 02D2     		bcs	.L13
 256 005c 3846     		mov	r0, r7
 257 005e FFF7FEFF 		bl	chSysHalt
 258              	.LVL19:
 259              	.L13:
 260              	.LBB76:
 261              	.LBB77:
 262              	.LBB78:
 263              		.file 5 "../../lib/e-puck2_main-processor/ChibiOS//os/ext/CMSIS/include/core_cmFunc.h"
 264              		.loc 5 546 0
 265 0062 0023     		movs	r3, #0
 266              		.syntax unified
 267              	@ 546 "../../lib/e-puck2_main-processor/ChibiOS//os/ext/CMSIS/include/core_cmFunc.h" 1
 268 0064 83F31188 		MSR basepri, r3
 269              	@ 0 "" 2
 270              	.LVL20:
 271              		.thumb
 272              		.syntax unified
 273              	.L14:
 274              	.LBE78:
 275              	.LBE77:
 276              	.LBE76:
 277              	.LBE79:
 278              	.LBE83:
 279              	.LBE91:
 280              	.LBE94:
 281              		.loc 1 40 0 discriminator 1
 282 0068 FFF7FEFF 		bl	dcmi_capture_start
 283              	.LVL21:
 284              		.loc 1 42 0 discriminator 1
 285 006c FFF7FEFF 		bl	wait_image_ready
ARM GAS  C:\Users\Leaned\AppData\Local\Temp\ccpX8rAs.s 			page 6


 286              	.LVL22:
 287              	.LBB95:
 288              	.LBB92:
 289              	.LBB84:
 290              	.LBB85:
 291              	.LBB86:
 292              	.LBB87:
 293              	.LBB88:
 294              		.loc 5 546 0 discriminator 1
 295              		.syntax unified
 296              	@ 546 "../../lib/e-puck2_main-processor/ChibiOS//os/ext/CMSIS/include/core_cmFunc.h" 1
 297 0070 85F31188 		MSR basepri, r5
 298              	@ 0 "" 2
 299              	.LVL23:
 300              		.thumb
 301              		.syntax unified
 302              	.LBE88:
 303              	.LBE87:
 304              	.LBE86:
 305              		.loc 4 349 0 discriminator 1
 306 0074 FFF7FEFF 		bl	_stats_start_measure_crit_thd
 307              	.LVL24:
 308              		.loc 4 350 0 discriminator 1
 309 0078 FFF7FEFF 		bl	_dbg_check_lock
 310              	.LVL25:
 311              	.LBE85:
 312              	.LBE84:
 313              	.LBB89:
 314              	.LBB82:
 315              		.loc 3 268 0 discriminator 1
 316 007c FFF7FEFF 		bl	chDbgCheckClassI
 317              	.LVL26:
 318              		.loc 3 270 0 discriminator 1
 319 0080 B368     		ldr	r3, [r6, #8]
 320 0082 002B     		cmp	r3, #0
 321 0084 DCDC     		bgt	.L12
 322              		.loc 3 271 0
 323 0086 4046     		mov	r0, r8
 324 0088 FFF7FEFF 		bl	chSemSignalI
 325              	.LVL27:
 326 008c D8E7     		b	.L12
 327              	.L18:
 328 008e 00BF     		.align	2
 329              	.L17:
 330 0090 00000000 		.word	ch
 331 0094 00000000 		.word	__stack_chk_guard
 332 0098 00000000 		.word	.LANCHOR3
 333 009c 00000000 		.word	.LANCHOR1
 334 00a0 00000000 		.word	.LANCHOR4
 335              	.LBE82:
 336              	.LBE89:
 337              	.LBE92:
 338              	.LBE95:
 339              		.cfi_endproc
 340              	.LFE257:
 341              		.size	CaptureImage, .-CaptureImage
 342              		.section	.text.get_distance_cm,"ax",%progbits
ARM GAS  C:\Users\Leaned\AppData\Local\Temp\ccpX8rAs.s 			page 7


 343              		.align	1
 344              		.p2align 4,,15
 345              		.global	get_distance_cm
 346              		.syntax unified
 347              		.thumb
 348              		.thumb_func
 349              		.fpu fpv4-sp-d16
 350              		.type	get_distance_cm, %function
 351              	get_distance_cm:
 352              	.LFB259:
 353              		.loc 1 103 0
 354              		.cfi_startproc
 355              		@ args = 0, pretend = 0, frame = 8
 356              		@ frame_needed = 0, uses_anonymous_args = 0
 357 0000 00B5     		push	{lr}
 358              		.cfi_def_cfa_offset 4
 359              		.cfi_offset 14, -4
 360              		.loc 1 104 0
 361 0002 0B49     		ldr	r1, .L23
 362              		.loc 1 103 0
 363 0004 0B4B     		ldr	r3, .L23+4
 364              		.loc 1 104 0
 365 0006 0988     		ldrh	r1, [r1]
 366              		.loc 1 103 0
 367 0008 1A68     		ldr	r2, [r3]
 368              		.loc 1 104 0
 369 000a DFED0B7A 		vldr.32	s15, .L23+8
 370              		.loc 1 103 0
 371 000e 83B0     		sub	sp, sp, #12
 372              		.cfi_def_cfa_offset 16
 373              		.loc 1 104 0
 374 0010 00EE101A 		vmov	s0, r1	@ int
 375              		.loc 1 103 0
 376 0014 0192     		str	r2, [sp, #4]
 377              		.loc 1 106 0
 378 0016 019A     		ldr	r2, [sp, #4]
 379 0018 1B68     		ldr	r3, [r3]
 380              		.loc 1 104 0
 381 001a B8EEC00A 		vcvt.f32.s32	s0, s0
 382              		.loc 1 106 0
 383 001e 9A42     		cmp	r2, r3
 384 0020 87EE800A 		vdiv.f32	s0, s15, s0
 385 0024 02D1     		bne	.L22
 386 0026 03B0     		add	sp, sp, #12
 387              		.cfi_remember_state
 388              		.cfi_def_cfa_offset 4
 389              		@ sp needed
 390 0028 5DF804FB 		ldr	pc, [sp], #4
 391              	.L22:
 392              		.cfi_restore_state
 393 002c FFF7FEFF 		bl	__stack_chk_fail
 394              	.LVL28:
 395              	.L24:
 396              		.align	2
 397              	.L23:
 398 0030 00000000 		.word	.LANCHOR2
 399 0034 00000000 		.word	__stack_chk_guard
ARM GAS  C:\Users\Leaned\AppData\Local\Temp\ccpX8rAs.s 			page 8


 400 0038 0040C444 		.word	1153712128
 401              		.cfi_endproc
 402              	.LFE259:
 403              		.size	get_distance_cm, .-get_distance_cm
 404              		.section	.text.process_image_start,"ax",%progbits
 405              		.align	1
 406              		.p2align 4,,15
 407              		.global	process_image_start
 408              		.syntax unified
 409              		.thumb
 410              		.thumb_func
 411              		.fpu fpv4-sp-d16
 412              		.type	process_image_start, %function
 413              	process_image_start:
 414              	.LFB260:
 415              		.loc 1 108 0
 416              		.cfi_startproc
 417              		@ args = 0, pretend = 0, frame = 8
 418              		@ frame_needed = 0, uses_anonymous_args = 0
 419 0000 30B5     		push	{r4, r5, lr}
 420              		.cfi_def_cfa_offset 12
 421              		.cfi_offset 4, -12
 422              		.cfi_offset 5, -8
 423              		.cfi_offset 14, -4
 424 0002 0E4C     		ldr	r4, .L29
 425              		.loc 1 109 0
 426 0004 0E4B     		ldr	r3, .L29+4
 427              		.loc 1 108 0
 428 0006 2268     		ldr	r2, [r4]
 429              		.loc 1 109 0
 430 0008 0E48     		ldr	r0, .L29+8
 431              		.loc 1 108 0
 432 000a 85B0     		sub	sp, sp, #20
 433              		.cfi_def_cfa_offset 32
 434              		.loc 1 109 0
 435 000c 0025     		movs	r5, #0
 436              		.loc 1 108 0
 437 000e 0392     		str	r2, [sp, #12]
 438              		.loc 1 109 0
 439 0010 4FF4AF61 		mov	r1, #1400
 440 0014 4022     		movs	r2, #64
 441 0016 0095     		str	r5, [sp]
 442 0018 FFF7FEFF 		bl	chThdCreateStatic
 443              	.LVL29:
 444              		.loc 1 110 0
 445 001c 0A4B     		ldr	r3, .L29+12
 446 001e 0095     		str	r5, [sp]
 447 0020 4022     		movs	r2, #64
 448 0022 0A48     		ldr	r0, .L29+16
 449 0024 4FF41E71 		mov	r1, #632
 450 0028 FFF7FEFF 		bl	chThdCreateStatic
 451              	.LVL30:
 452              		.loc 1 111 0
 453 002c 039A     		ldr	r2, [sp, #12]
 454 002e 2368     		ldr	r3, [r4]
 455 0030 9A42     		cmp	r2, r3
 456 0032 01D1     		bne	.L28
ARM GAS  C:\Users\Leaned\AppData\Local\Temp\ccpX8rAs.s 			page 9


 457 0034 05B0     		add	sp, sp, #20
 458              		.cfi_remember_state
 459              		.cfi_def_cfa_offset 12
 460              		@ sp needed
 461 0036 30BD     		pop	{r4, r5, pc}
 462              	.L28:
 463              		.cfi_restore_state
 464 0038 FFF7FEFF 		bl	__stack_chk_fail
 465              	.LVL31:
 466              	.L30:
 467              		.align	2
 468              	.L29:
 469 003c 00000000 		.word	__stack_chk_guard
 470 0040 00000000 		.word	ProcessImage
 471 0044 00000000 		.word	.LANCHOR5
 472 0048 00000000 		.word	CaptureImage
 473 004c 00000000 		.word	.LANCHOR6
 474              		.cfi_endproc
 475              	.LFE260:
 476              		.size	process_image_start, .-process_image_start
 477              		.section	.bss.pixel_counter,"aw",%nobits
 478              		.align	1
 479              		.set	.LANCHOR2,. + 0
 480              		.type	pixel_counter, %object
 481              		.size	pixel_counter, 2
 482              	pixel_counter:
 483 0000 0000     		.space	2
 484              		.section	.bss.waCaptureImage,"aw",%nobits
 485              		.align	3
 486              		.set	.LANCHOR6,. + 0
 487              		.type	waCaptureImage, %object
 488              		.size	waCaptureImage, 632
 489              	waCaptureImage:
 490 0000 00000000 		.space	632
 490      00000000 
 490      00000000 
 490      00000000 
 490      00000000 
 491              		.section	.bss.waProcessImage,"aw",%nobits
 492              		.align	3
 493              		.set	.LANCHOR5,. + 0
 494              		.type	waProcessImage, %object
 495              		.size	waProcessImage, 1400
 496              	waProcessImage:
 497 0000 00000000 		.space	1400
 497      00000000 
 497      00000000 
 497      00000000 
 497      00000000 
 498              		.section	.data.image_ready_sem,"aw",%progbits
 499              		.align	2
 500              		.set	.LANCHOR1,. + 0
 501              		.type	image_ready_sem, %object
 502              		.size	image_ready_sem, 12
 503              	image_ready_sem:
 504 0000 00000000 		.word	image_ready_sem
 505 0004 00000000 		.word	image_ready_sem
ARM GAS  C:\Users\Leaned\AppData\Local\Temp\ccpX8rAs.s 			page 10


 506 0008 00000000 		.word	0
 507              		.section	.rodata.__FUNCTION__.11331,"a",%progbits
 508              		.align	2
 509              		.set	.LANCHOR3,. + 0
 510              		.type	__FUNCTION__.11331, %object
 511              		.size	__FUNCTION__.11331, 13
 512              	__FUNCTION__.11331:
 513 0000 43617074 		.ascii	"CaptureImage\000"
 513      75726549 
 513      6D616765 
 513      00
 514              		.section	.rodata.__FUNCTION__.11337,"a",%progbits
 515              		.align	2
 516              		.set	.LANCHOR0,. + 0
 517              		.type	__FUNCTION__.11337, %object
 518              		.size	__FUNCTION__.11337, 13
 519              	__FUNCTION__.11337:
 520 0000 50726F63 		.ascii	"ProcessImage\000"
 520      65737349 
 520      6D616765 
 520      00
 521              		.section	.rodata.__func__.7153,"a",%progbits
 522              		.align	2
 523              		.set	.LANCHOR4,. + 0
 524              		.type	__func__.7153, %object
 525              		.size	__func__.7153, 12
 526              	__func__.7153:
 527 0000 63685379 		.ascii	"chSysUnlock\000"
 527      73556E6C 
 527      6F636B00 
 528              		.text
 529              	.Letext0:
 530              		.file 6 "c:\\users\\leaned\\desktop\\eclipse\\eclipse_e-puck2\\tools\\gcc-arm-none-eabi-7-2017-q4-
 531              		.file 7 "c:\\users\\leaned\\desktop\\eclipse\\eclipse_e-puck2\\tools\\gcc-arm-none-eabi-7-2017-q4-
 532              		.file 8 "c:\\users\\leaned\\desktop\\eclipse\\eclipse_e-puck2\\tools\\gcc-arm-none-eabi-7-2017-q4-
 533              		.file 9 "../../lib/e-puck2_main-processor/ChibiOS//os/rt/ports/ARMCMx/compilers/GCC/chtypes.h"
 534              		.file 10 "../../lib/e-puck2_main-processor/ChibiOS//os/rt/include/chsystypes.h"
 535              		.file 11 "../../lib/e-puck2_main-processor/ChibiOS//os/rt/include/chschd.h"
 536              		.file 12 "../../lib/e-puck2_main-processor/ChibiOS//os/ext/CMSIS/include/core_cm4.h"
 537              		.file 13 "../../lib/e-puck2_main-processor/ChibiOS//os/ext/CMSIS/ST/system_stm32f4xx.h"
 538              		.file 14 "../../lib/e-puck2_main-processor/ChibiOS//os/ext/CMSIS/ST/stm32f407xx.h"
 539              		.file 15 "../../lib/e-puck2_main-processor/ChibiOS//os/rt/ports/ARMCMx/chcore.h"
 540              		.file 16 "../../lib/e-puck2_main-processor/ChibiOS//os/rt/ports/ARMCMx/chcore_v7m.h"
 541              		.file 17 "../../lib/e-puck2_main-processor/ChibiOS//os/rt/include/chdebug.h"
 542              		.file 18 "../../lib/e-puck2_main-processor/ChibiOS//os/rt/include/chtm.h"
 543              		.file 19 "../../lib/e-puck2_main-processor/ChibiOS//os/rt/include/chstats.h"
 544              		.file 20 "../../lib/e-puck2_main-processor/ChibiOS//os/rt/include/chsem.h"
 545              		.file 21 "../../lib/e-puck2_main-processor/ChibiOS//os/rt/include/chmtx.h"
 546              		.file 22 "../../lib/e-puck2_main-processor/ChibiOS//os/rt/include/chevents.h"
 547              		.file 23 "../../lib/e-puck2_main-processor/ChibiOS//os/rt/include/chqueues.h"
 548              		.file 24 "../../lib/e-puck2_main-processor/ChibiOS//os/hal/ports/STM32/STM32F4xx/stm32_dma.h"
 549              		.file 25 "../../lib/e-puck2_main-processor/ChibiOS//os/hal/include/hal_ioblock.h"
 550              		.file 26 "../../lib/e-puck2_main-processor/ChibiOS//os/hal/ports/STM32/LLD/GPIOv2/pal_lld.h"
 551              		.file 27 "../../lib/e-puck2_main-processor/ChibiOS//os/hal/include/adc.h"
 552              		.file 28 "../../lib/e-puck2_main-processor/ChibiOS//os/hal/ports/STM32/STM32F4xx/adc_lld.h"
 553              		.file 29 "../../lib/e-puck2_main-processor/ChibiOS//os/hal/include/can.h"
 554              		.file 30 "../../lib/e-puck2_main-processor/ChibiOS//os/hal/ports/STM32/LLD/can_lld.h"
ARM GAS  C:\Users\Leaned\AppData\Local\Temp\ccpX8rAs.s 			page 11


 555              		.file 31 "../../lib/e-puck2_main-processor/ChibiOS//os/hal/include/dac.h"
 556              		.file 32 "../../lib/e-puck2_main-processor/ChibiOS//os/hal/ports/STM32/LLD/DACv1/dac_lld.h"
 557              		.file 33 "../../lib/e-puck2_main-processor/ChibiOS//os/hal/include/ext.h"
 558              		.file 34 "../../lib/e-puck2_main-processor/ChibiOS//os/hal/ports/STM32/LLD/ext_lld.h"
 559              		.file 35 "../../lib/e-puck2_main-processor/ChibiOS//os/hal/include/gpt.h"
 560              		.file 36 "../../lib/e-puck2_main-processor/ChibiOS//os/hal/ports/STM32/LLD/TIMv1/gpt_lld.h"
 561              		.file 37 "../../lib/e-puck2_main-processor/ChibiOS//os/hal/ports/STM32/LLD/TIMv1/stm32_tim.h"
 562              		.file 38 "../../lib/e-puck2_main-processor/ChibiOS//os/hal/include/i2c.h"
 563              		.file 39 "../../lib/e-puck2_main-processor/ChibiOS//os/hal/ports/STM32/LLD/I2Cv1/i2c_lld.h"
 564              		.file 40 "../../lib/e-puck2_main-processor/ChibiOS//os/hal/include/i2s.h"
 565              		.file 41 "../../lib/e-puck2_main-processor/ChibiOS//os/hal/ports/STM32/LLD/SPIv1/i2s_lld.h"
 566              		.file 42 "../../lib/e-puck2_main-processor/ChibiOS//os/hal/include/pwm.h"
 567              		.file 43 "../../lib/e-puck2_main-processor/ChibiOS//os/hal/ports/STM32/LLD/TIMv1/pwm_lld.h"
 568              		.file 44 "../../lib/e-puck2_main-processor/ChibiOS//os/hal/include/serial.h"
 569              		.file 45 "../../lib/e-puck2_main-processor/ChibiOS//os/hal/ports/STM32/LLD/USARTv1/serial_lld.h"
 570              		.file 46 "../../lib/e-puck2_main-processor/ChibiOS//os/hal/include/sdc.h"
 571              		.file 47 "../../lib/e-puck2_main-processor/ChibiOS//os/hal/ports/STM32/LLD/sdc_lld.h"
 572              		.file 48 "../../lib/e-puck2_main-processor/ChibiOS//os/hal/include/spi.h"
 573              		.file 49 "../../lib/e-puck2_main-processor/ChibiOS//os/hal/ports/STM32/LLD/SPIv1/spi_lld.h"
 574              		.file 50 "../../lib/e-puck2_main-processor/ChibiOS//os/hal/include/usb.h"
 575              		.file 51 "../../lib/e-puck2_main-processor/ChibiOS//os/hal/ports/STM32/LLD/OTGv1/usb_lld.h"
 576              		.file 52 "../../lib/e-puck2_main-processor/ChibiOS//os/hal/ports/STM32/LLD/OTGv1/stm32_otg.h"
 577              		.file 53 "../../lib/e-puck2_main-processor/ChibiOS//os/hal/include/serial_usb.h"
 578              		.file 54 "../../lib/e-puck2_main-processor/src/usbcfg.h"
 579              		.file 55 "../../lib/e-puck2_main-processor/ChibiOS_ext/os/hal/include/../ports/STM32/STM32F4xx/dcm
 580              		.file 56 "../../lib/e-puck2_main-processor/src/camera/po8030.h"
 581              		.file 57 "../../lib/e-puck2_main-processor/src/camera/dcmi_camera.h"
 582              		.file 58 "c:\\users\\leaned\\desktop\\eclipse\\eclipse_e-puck2\\tools\\gcc-arm-none-eabi-7-2017-q4
 583              		.file 59 "c:\\users\\leaned\\desktop\\eclipse\\eclipse_e-puck2\\tools\\gcc-arm-none-eabi-7-2017-q4
 584              		.file 60 "c:\\users\\leaned\\desktop\\eclipse\\eclipse_e-puck2\\tools\\gcc-arm-none-eabi-7-2017-q4
 585              		.file 61 "../../lib/e-puck2_main-processor/src/msgbus/messagebus.h"
 586              		.file 62 "c:\\users\\leaned\\desktop\\eclipse\\eclipse_e-puck2\\tools\\gcc-arm-none-eabi-7-2017-q4
 587              		.file 63 "c:\\users\\leaned\\desktop\\eclipse\\eclipse_e-puck2\\tools\\gcc-arm-none-eabi-7-2017-q4
 588              		.file 64 "../../lib/e-puck2_main-processor/src/parameter/parameter.h"
 589              		.file 65 "./main.h"
 590              		.file 66 "../../lib/e-puck2_main-processor/ChibiOS//os/rt/include/chthreads.h"