ARM GAS  C:\Users\Leaned\AppData\Local\Temp\cccHDJU2.s 			page 1


   1              		.cpu cortex-m4
   2              		.eabi_attribute 27, 1
   3              		.eabi_attribute 28, 1
   4              		.eabi_attribute 20, 1
   5              		.eabi_attribute 21, 1
   6              		.eabi_attribute 23, 3
   7              		.eabi_attribute 24, 1
   8              		.eabi_attribute 25, 1
   9              		.eabi_attribute 26, 1
  10              		.eabi_attribute 30, 2
  11              		.eabi_attribute 34, 1
  12              		.eabi_attribute 18, 4
  13              		.file	"process_image.c"
  14              		.text
  15              	.Ltext0:
  16              		.cfi_sections	.debug_frame
  17              		.section	.text.chprintf.constprop.0,"ax",%progbits
  18              		.align	1
  19              		.p2align 4,,15
  20              		.syntax unified
  21              		.thumb
  22              		.thumb_func
  23              		.fpu fpv4-sp-d16
  24              		.type	chprintf.constprop.0, %function
  25              	chprintf.constprop.0:
  26              	.LFB264:
  27              		.file 1 "../../lib/e-puck2_main-processor/ChibiOS//os/hal/lib/streams/chprintf.h"
  28              		.loc 1 69 0
  29              		.cfi_startproc
  30              		@ args = 4, pretend = 12, frame = 8
  31              		@ frame_needed = 0, uses_anonymous_args = 1
  32              	.LVL0:
  33 0000 0EB4     		push	{r1, r2, r3}
  34              		.cfi_def_cfa_offset 12
  35              		.cfi_offset 1, -12
  36              		.cfi_offset 2, -8
  37              		.cfi_offset 3, -4
  38 0002 10B5     		push	{r4, lr}
  39              		.cfi_def_cfa_offset 20
  40              		.cfi_offset 4, -20
  41              		.cfi_offset 14, -16
  42 0004 0A4C     		ldr	r4, .L6
  43              		.loc 1 74 0
  44 0006 0B49     		ldr	r1, .L6+4
  45              		.loc 1 69 0
  46 0008 2368     		ldr	r3, [r4]
  47              		.loc 1 74 0
  48 000a 0B48     		ldr	r0, .L6+8
  49              	.LVL1:
  50              		.loc 1 69 0
  51 000c 83B0     		sub	sp, sp, #12
  52              		.cfi_def_cfa_offset 32
  53              		.loc 1 69 0
  54 000e 0193     		str	r3, [sp, #4]
  55              	.LVL2:
  56              		.loc 1 73 0
  57 0010 06AB     		add	r3, sp, #24
ARM GAS  C:\Users\Leaned\AppData\Local\Temp\cccHDJU2.s 			page 2


  58              		.loc 1 74 0
  59 0012 1A46     		mov	r2, r3
  60              		.loc 1 73 0
  61 0014 0093     		str	r3, [sp]
  62              		.loc 1 74 0
  63 0016 FFF7FEFF 		bl	chvprintf
  64              	.LVL3:
  65              		.loc 1 78 0
  66 001a 019A     		ldr	r2, [sp, #4]
  67 001c 2368     		ldr	r3, [r4]
  68 001e 9A42     		cmp	r2, r3
  69 0020 04D1     		bne	.L5
  70 0022 03B0     		add	sp, sp, #12
  71              		.cfi_remember_state
  72              		.cfi_def_cfa_offset 20
  73              		@ sp needed
  74 0024 BDE81040 		pop	{r4, lr}
  75              		.cfi_restore 14
  76              		.cfi_restore 4
  77              		.cfi_def_cfa_offset 12
  78 0028 03B0     		add	sp, sp, #12
  79              		.cfi_restore 3
  80              		.cfi_restore 2
  81              		.cfi_restore 1
  82              		.cfi_def_cfa_offset 0
  83 002a 7047     		bx	lr
  84              	.L5:
  85              		.cfi_restore_state
  86 002c FFF7FEFF 		bl	__stack_chk_fail
  87              	.LVL4:
  88              	.L7:
  89              		.align	2
  90              	.L6:
  91 0030 00000000 		.word	__stack_chk_guard
  92 0034 00000000 		.word	.LC0
  93 0038 00000000 		.word	SDU1
  94              		.cfi_endproc
  95              	.LFE264:
  96              		.size	chprintf.constprop.0, .-chprintf.constprop.0
  97              		.section	.text.CaptureImage,"ax",%progbits
  98              		.align	1
  99              		.p2align 4,,15
 100              		.syntax unified
 101              		.thumb
 102              		.thumb_func
 103              		.fpu fpv4-sp-d16
 104              		.type	CaptureImage, %function
 105              	CaptureImage:
 106              	.LFB258:
 107              		.file 2 "process_image.c"
 108              		.loc 2 103 0
 109              		.cfi_startproc
 110              		@ Volatile: function does not return.
 111              		@ args = 0, pretend = 0, frame = 8
 112              		@ frame_needed = 0, uses_anonymous_args = 0
 113              	.LVL5:
 114 0000 80B5     		push	{r7, lr}
ARM GAS  C:\Users\Leaned\AppData\Local\Temp\cccHDJU2.s 			page 3


 115              		.cfi_def_cfa_offset 8
 116              		.cfi_offset 7, -8
 117              		.cfi_offset 14, -4
 118              	.LBB51:
 119              	.LBB52:
 120              		.file 3 "../../lib/e-puck2_main-processor/ChibiOS//os/rt/include/chregistry.h"
 121              		.loc 3 135 0
 122 0002 234C     		ldr	r4, .L14
 123              	.LBE52:
 124              	.LBE51:
 125              		.loc 2 103 0
 126 0004 234A     		ldr	r2, .L14+4
 127              	.LBB55:
 128              	.LBB53:
 129              		.loc 3 135 0
 130 0006 A369     		ldr	r3, [r4, #24]
 131 0008 2349     		ldr	r1, .L14+8
 132              	.LBE53:
 133              	.LBE55:
 134              		.loc 2 103 0
 135 000a 1668     		ldr	r6, [r2]
 136              	.LBB56:
 137              	.LBB54:
 138              		.loc 3 135 0
 139 000c 9961     		str	r1, [r3, #24]
 140              	.LBE54:
 141              	.LBE56:
 142              		.loc 2 103 0
 143 000e 86B0     		sub	sp, sp, #24
 144              		.cfi_def_cfa_offset 32
 145              		.loc 2 109 0
 146 0010 0223     		movs	r3, #2
 147 0012 2025     		movs	r5, #32
 148 0014 0A22     		movs	r2, #10
 149 0016 0021     		movs	r1, #0
 150 0018 0093     		str	r3, [sp]
 151              		.loc 2 103 0
 152 001a 0596     		str	r6, [sp, #20]
 153              		.loc 2 109 0
 154 001c 4FF42073 		mov	r3, #640
 155 0020 CDE90155 		strd	r5, r5, [sp, #4]
 156 0024 3020     		movs	r0, #48
 157              	.LVL6:
 158 0026 1D4E     		ldr	r6, .L14+12
 159              	.LBB57:
 160              	.LBB58:
 161              	.LBB59:
 162              	.LBB60:
 163              		.file 4 "../../lib/e-puck2_main-processor/ChibiOS//os/rt/include/chsys.h"
 164              		.loc 4 367 0
 165 0028 1D4F     		ldr	r7, .L14+16
 166              	.LBE60:
 167              	.LBE59:
 168              	.LBE58:
 169              	.LBE57:
 170              		.loc 2 109 0
 171 002a FFF7FEFF 		bl	po8030_advanced_config
ARM GAS  C:\Users\Leaned\AppData\Local\Temp\cccHDJU2.s 			page 4


 172              	.LVL7:
 173              		.loc 2 110 0
 174 002e FFF7FEFF 		bl	dcmi_enable_double_buffering
 175              	.LVL8:
 176              		.loc 2 111 0
 177 0032 0020     		movs	r0, #0
 178 0034 FFF7FEFF 		bl	dcmi_set_capture_mode
 179              	.LVL9:
 180              	.LBB78:
 181              	.LBB75:
 182              	.LBB65:
 183              	.LBB66:
 184              		.file 5 "../../lib/e-puck2_main-processor/ChibiOS//os/rt/include/chbsem.h"
 185              		.loc 5 271 0
 186 0038 B046     		mov	r8, r6
 187              	.LBE66:
 188              	.LBE65:
 189              	.LBE75:
 190              	.LBE78:
 191              		.loc 2 112 0
 192 003a FFF7FEFF 		bl	dcmi_prepare
 193              	.LVL10:
 194 003e 13E0     		b	.L11
 195              	.LVL11:
 196              	.L9:
 197              	.LBB79:
 198              	.LBB76:
 199              		.loc 5 286 0
 200 0040 FFF7FEFF 		bl	chSchRescheduleS
 201              	.LVL12:
 202              	.LBB68:
 203              	.LBB64:
 204              		.loc 4 360 0
 205 0044 FFF7FEFF 		bl	_dbg_check_unlock
 206              	.LVL13:
 207              		.loc 4 361 0
 208 0048 FFF7FEFF 		bl	_stats_stop_measure_crit_thd
 209              	.LVL14:
 210              		.loc 4 367 0
 211 004c 2368     		ldr	r3, [r4]
 212 004e A342     		cmp	r3, r4
 213 0050 07D0     		beq	.L10
 214 0052 A269     		ldr	r2, [r4, #24]
 215 0054 9B68     		ldr	r3, [r3, #8]
 216 0056 9268     		ldr	r2, [r2, #8]
 217 0058 9A42     		cmp	r2, r3
 218 005a 02D2     		bcs	.L10
 219 005c 3846     		mov	r0, r7
 220 005e FFF7FEFF 		bl	chSysHalt
 221              	.LVL15:
 222              	.L10:
 223              	.LBB61:
 224              	.LBB62:
 225              	.LBB63:
 226              		.file 6 "../../lib/e-puck2_main-processor/ChibiOS//os/ext/CMSIS/include/core_cmFunc.h"
 227              		.loc 6 546 0
 228 0062 0023     		movs	r3, #0
ARM GAS  C:\Users\Leaned\AppData\Local\Temp\cccHDJU2.s 			page 5


 229              		.syntax unified
 230              	@ 546 "../../lib/e-puck2_main-processor/ChibiOS//os/ext/CMSIS/include/core_cmFunc.h" 1
 231 0064 83F31188 		MSR basepri, r3
 232              	@ 0 "" 2
 233              	.LVL16:
 234              		.thumb
 235              		.syntax unified
 236              	.L11:
 237              	.LBE63:
 238              	.LBE62:
 239              	.LBE61:
 240              	.LBE64:
 241              	.LBE68:
 242              	.LBE76:
 243              	.LBE79:
 244              		.loc 2 116 0 discriminator 1
 245 0068 FFF7FEFF 		bl	dcmi_capture_start
 246              	.LVL17:
 247              		.loc 2 118 0 discriminator 1
 248 006c FFF7FEFF 		bl	wait_image_ready
 249              	.LVL18:
 250              	.LBB80:
 251              	.LBB77:
 252              	.LBB69:
 253              	.LBB70:
 254              	.LBB71:
 255              	.LBB72:
 256              	.LBB73:
 257              		.loc 6 546 0 discriminator 1
 258              		.syntax unified
 259              	@ 546 "../../lib/e-puck2_main-processor/ChibiOS//os/ext/CMSIS/include/core_cmFunc.h" 1
 260 0070 85F31188 		MSR basepri, r5
 261              	@ 0 "" 2
 262              	.LVL19:
 263              		.thumb
 264              		.syntax unified
 265              	.LBE73:
 266              	.LBE72:
 267              	.LBE71:
 268              		.loc 4 349 0 discriminator 1
 269 0074 FFF7FEFF 		bl	_stats_start_measure_crit_thd
 270              	.LVL20:
 271              		.loc 4 350 0 discriminator 1
 272 0078 FFF7FEFF 		bl	_dbg_check_lock
 273              	.LVL21:
 274              	.LBE70:
 275              	.LBE69:
 276              	.LBB74:
 277              	.LBB67:
 278              		.loc 5 268 0 discriminator 1
 279 007c FFF7FEFF 		bl	chDbgCheckClassI
 280              	.LVL22:
 281              		.loc 5 270 0 discriminator 1
 282 0080 B368     		ldr	r3, [r6, #8]
 283 0082 002B     		cmp	r3, #0
 284 0084 DCDC     		bgt	.L9
 285              		.loc 5 271 0
ARM GAS  C:\Users\Leaned\AppData\Local\Temp\cccHDJU2.s 			page 6


 286 0086 4046     		mov	r0, r8
 287 0088 FFF7FEFF 		bl	chSemSignalI
 288              	.LVL23:
 289 008c D8E7     		b	.L9
 290              	.L15:
 291 008e 00BF     		.align	2
 292              	.L14:
 293 0090 00000000 		.word	ch
 294 0094 00000000 		.word	__stack_chk_guard
 295 0098 00000000 		.word	.LANCHOR0
 296 009c 00000000 		.word	.LANCHOR1
 297 00a0 00000000 		.word	.LANCHOR2
 298              	.LBE67:
 299              	.LBE74:
 300              	.LBE77:
 301              	.LBE80:
 302              		.cfi_endproc
 303              	.LFE258:
 304              		.size	CaptureImage, .-CaptureImage
 305              		.section	.text.extract_line_width,"ax",%progbits
 306              		.align	1
 307              		.p2align 4,,15
 308              		.global	extract_line_width
 309              		.syntax unified
 310              		.thumb
 311              		.thumb_func
 312              		.fpu fpv4-sp-d16
 313              		.type	extract_line_width, %function
 314              	extract_line_width:
 315              	.LFB257:
 316              		.loc 2 22 0
 317              		.cfi_startproc
 318              		@ args = 0, pretend = 0, frame = 8
 319              		@ frame_needed = 0, uses_anonymous_args = 0
 320              	.LVL24:
 321 0000 F0B5     		push	{r4, r5, r6, r7, lr}
 322              		.cfi_def_cfa_offset 20
 323              		.cfi_offset 4, -20
 324              		.cfi_offset 5, -16
 325              		.cfi_offset 6, -12
 326              		.cfi_offset 7, -8
 327              		.cfi_offset 14, -4
 328 0002 344C     		ldr	r4, .L45
 329 0004 83B0     		sub	sp, sp, #12
 330              		.cfi_def_cfa_offset 32
 331              		.loc 2 22 0
 332 0006 2368     		ldr	r3, [r4]
 333 0008 0193     		str	r3, [sp, #4]
 334              	.LVL25:
 335 000a 00F27F25 		addw	r5, r0, #639
 336 000e 431E     		subs	r3, r0, #1
 337              		.loc 2 26 0
 338 0010 0022     		movs	r2, #0
 339              	.LVL26:
 340              	.L17:
 341              	.LBB81:
 342              		.loc 2 32 0 discriminator 3
ARM GAS  C:\Users\Leaned\AppData\Local\Temp\cccHDJU2.s 			page 7


 343 0012 13F8011F 		ldrb	r1, [r3, #1]!	@ zero_extendqisi2
 344              		.loc 2 31 0 discriminator 3
 345 0016 9D42     		cmp	r5, r3
 346              		.loc 2 32 0 discriminator 3
 347 0018 0A44     		add	r2, r2, r1
 348              	.LVL27:
 349              		.loc 2 31 0 discriminator 3
 350 001a FAD1     		bne	.L17
 351              	.LBE81:
 352              		.loc 2 34 0
 353 001c 2E4B     		ldr	r3, .L45+4
 354 001e 0578     		ldrb	r5, [r0]	@ zero_extendqisi2
 355 0020 A3FB0232 		umull	r3, r2, r3, r2
 356              	.LVL28:
 357 0024 520A     		lsrs	r2, r2, #9
 358              	.LVL29:
 359              		.loc 2 24 0
 360 0026 0021     		movs	r1, #0
 361              		.loc 2 39 0
 362 0028 40F27A26 		movw	r6, #634
 363              	.LVL30:
 364              	.L18:
 365 002c 4B1C     		adds	r3, r1, #1
 366              		.loc 2 43 0
 367 002e 9542     		cmp	r5, r2
 368 0030 9BB2     		uxth	r3, r3
 369 0032 1FD9     		bls	.L20
 370              	.L43:
 371              		.loc 2 43 0 is_stmt 0 discriminator 1
 372 0034 4518     		adds	r5, r0, r1
 373 0036 6D79     		ldrb	r5, [r5, #5]	@ zero_extendqisi2
 374 0038 9542     		cmp	r5, r2
 375 003a 1BD2     		bcs	.L20
 376              	.LVL31:
 377              		.loc 2 51 0 is_stmt 1
 378 003c B342     		cmp	r3, r6
 379 003e 25D8     		bhi	.L19
 380              		.loc 2 51 0 is_stmt 0 discriminator 1
 381 0040 21B3     		cbz	r1, .L19
 382 0042 03F1FF3C 		add	ip, r3, #-1
 383 0046 8444     		add	ip, ip, r0
 384              	.LVL32:
 385              	.L28:
 386              		.loc 2 57 0 is_stmt 1
 387 0048 1CF8015F 		ldrb	r5, [ip, #1]!	@ zero_extendqisi2
 388 004c 9542     		cmp	r5, r2
 389 004e 9FB2     		uxth	r7, r3
 390 0050 15D9     		bls	.L23
 391              		.loc 2 57 0 is_stmt 0 discriminator 1
 392 0052 1CF805EC 		ldrb	lr, [ip, #-5]	@ zero_extendqisi2
 393 0056 9645     		cmp	lr, r2
 394 0058 11D2     		bcs	.L23
 395              	.LVL33:
 396              		.loc 2 76 0 is_stmt 1
 397 005a A7EB010C 		sub	ip, r7, r1
 398 005e BCF1270F 		cmp	ip, #39
 399 0062 3B46     		mov	r3, r7
ARM GAS  C:\Users\Leaned\AppData\Local\Temp\cccHDJU2.s 			page 8


 400 0064 2ADC     		bgt	.L42
 401              	.LVL34:
 402              		.loc 2 39 0
 403 0066 B742     		cmp	r7, r6
 404 0068 10D8     		bhi	.L19
 405 006a 3946     		mov	r1, r7
 406 006c 4B1C     		adds	r3, r1, #1
 407              		.loc 2 43 0
 408 006e 9542     		cmp	r5, r2
 409 0070 9BB2     		uxth	r3, r3
 410 0072 DFD8     		bhi	.L43
 411              	.LVL35:
 412              	.L20:
 413              		.loc 2 39 0 discriminator 1
 414 0074 B342     		cmp	r3, r6
 415 0076 09D8     		bhi	.L19
 416 0078 C55C     		ldrb	r5, [r0, r3]	@ zero_extendqisi2
 417              	.LVL36:
 418              		.loc 2 39 0 is_stmt 0
 419 007a 1946     		mov	r1, r3
 420 007c D6E7     		b	.L18
 421              	.LVL37:
 422              	.L23:
 423 007e 0137     		adds	r7, r7, #1
 424 0080 BFB2     		uxth	r7, r7
 425              	.LVL38:
 426              		.loc 2 55 0 is_stmt 1
 427 0082 B7F5207F 		cmp	r7, #640
 428 0086 03F10103 		add	r3, r3, #1
 429 008a DDD1     		bne	.L28
 430              	.LVL39:
 431              	.L19:
 432              		.loc 2 88 0
 433 008c 134B     		ldr	r3, .L45+8
 434 008e 1888     		ldrh	r0, [r3]
 435              	.LVL40:
 436              	.L31:
 437              		.loc 2 95 0
 438 0090 DFED136A 		vldr.32	s13, .L45+12
 439              		.loc 2 100 0
 440 0094 019A     		ldr	r2, [sp, #4]
 441 0096 2368     		ldr	r3, [r4]
 442              		.loc 2 95 0
 443 0098 07EE900A 		vmov	s15, r0	@ int
 444 009c F8EEE77A 		vcvt.f32.s32	s15, s15
 445 00a0 86EEA77A 		vdiv.f32	s14, s13, s15
 446 00a4 F3EE097A 		vmov.f32	s15, #2.5e+1
 447              		.loc 2 96 0
 448 00a8 B4EE677A 		vcmp.f32	s14, s15
 449 00ac F1EE10FA 		vmrs	APSR_nzcv, FPSCR
 450              		.loc 2 100 0
 451 00b0 C8BF     		it	gt
 452 00b2 3E20     		movgt	r0, #62
 453              	.LVL41:
 454 00b4 9A42     		cmp	r2, r3
 455 00b6 0AD1     		bne	.L44
 456 00b8 03B0     		add	sp, sp, #12
ARM GAS  C:\Users\Leaned\AppData\Local\Temp\cccHDJU2.s 			page 9


 457              		.cfi_remember_state
 458              		.cfi_def_cfa_offset 20
 459              		@ sp needed
 460 00ba F0BD     		pop	{r4, r5, r6, r7, pc}
 461              	.LVL42:
 462              	.L42:
 463              		.cfi_restore_state
 464              		.loc 2 90 0
 465 00bc 781A     		subs	r0, r7, r1
 466              	.LVL43:
 467              		.loc 2 91 0
 468 00be 0B44     		add	r3, r3, r1
 469 00c0 084A     		ldr	r2, .L45+16
 470              	.LVL44:
 471              		.loc 2 90 0
 472 00c2 0649     		ldr	r1, .L45+8
 473 00c4 80B2     		uxth	r0, r0
 474              	.LVL45:
 475              		.loc 2 91 0
 476 00c6 5B10     		asrs	r3, r3, #1
 477              		.loc 2 90 0
 478 00c8 0880     		strh	r0, [r1]	@ movhi
 479              		.loc 2 91 0
 480 00ca 1380     		strh	r3, [r2]	@ movhi
 481 00cc E0E7     		b	.L31
 482              	.LVL46:
 483              	.L44:
 484              		.loc 2 100 0
 485 00ce FFF7FEFF 		bl	__stack_chk_fail
 486              	.LVL47:
 487              	.L46:
 488 00d2 00BF     		.align	2
 489              	.L45:
 490 00d4 00000000 		.word	__stack_chk_guard
 491 00d8 CDCCCCCC 		.word	-858993459
 492 00dc 00000000 		.word	.LANCHOR3
 493 00e0 0040C444 		.word	1153712128
 494 00e4 00000000 		.word	.LANCHOR4
 495              		.cfi_endproc
 496              	.LFE257:
 497              		.size	extract_line_width, .-extract_line_width
 498              		.global	__aeabi_f2d
 499              		.section	.text.ProcessImage,"ax",%progbits
 500              		.align	1
 501              		.p2align 4,,15
 502              		.syntax unified
 503              		.thumb
 504              		.thumb_func
 505              		.fpu fpv4-sp-d16
 506              		.type	ProcessImage, %function
 507              	ProcessImage:
 508              	.LFB259:
 509              		.loc 2 126 0
 510              		.cfi_startproc
 511              		@ args = 0, pretend = 0, frame = 656
 512              		@ frame_needed = 0, uses_anonymous_args = 0
 513              	.LVL48:
ARM GAS  C:\Users\Leaned\AppData\Local\Temp\cccHDJU2.s 			page 10


 514 0000 2DE9F041 		push	{r4, r5, r6, r7, r8, lr}
 515              		.cfi_def_cfa_offset 24
 516              		.cfi_offset 4, -24
 517              		.cfi_offset 5, -20
 518              		.cfi_offset 6, -16
 519              		.cfi_offset 7, -12
 520              		.cfi_offset 8, -8
 521              		.cfi_offset 14, -4
 522 0004 2DED028B 		vpush.64	{d8}
 523              		.cfi_def_cfa_offset 32
 524              		.cfi_offset 80, -32
 525              		.cfi_offset 81, -28
 526              	.LBB82:
 527              	.LBB83:
 528              		.loc 3 135 0
 529 0008 244A     		ldr	r2, .L63
 530              	.LBE83:
 531              	.LBE82:
 532              		.loc 2 126 0
 533 000a 254B     		ldr	r3, .L63+4
 534              	.LBB85:
 535              	.LBB84:
 536              		.loc 3 135 0
 537 000c 9269     		ldr	r2, [r2, #24]
 538 000e 2549     		ldr	r1, .L63+8
 539 0010 9161     		str	r1, [r2, #24]
 540              	.LBE84:
 541              	.LBE85:
 542              		.loc 2 126 0
 543 0012 ADF5247D 		sub	sp, sp, #656
 544              		.cfi_def_cfa_offset 688
 545              		.loc 2 132 0
 546 0016 03AC     		add	r4, sp, #12
 547              		.loc 2 126 0
 548 0018 1B68     		ldr	r3, [r3]
 549 001a A393     		str	r3, [sp, #652]
 550              		.loc 2 132 0
 551 001c 2046     		mov	r0, r4
 552              	.LVL49:
 553 001e 4FF42072 		mov	r2, #640
 554 0022 0021     		movs	r1, #0
 555 0024 FFF7FEFF 		bl	memset
 556              	.LVL50:
 557 0028 DFF88C80 		ldr	r8, .L63+28
 558              	.LBB86:
 559              	.LBB87:
 560              		.loc 5 143 0
 561 002c 1E4E     		ldr	r6, .L63+12
 562              	.LBE87:
 563              	.LBE86:
 564              		.loc 2 155 0
 565 002e 9FED1F8A 		vldr.32	s16, .L63+16
 566              		.loc 2 156 0
 567 0032 1F4F     		ldr	r7, .L63+20
 568              		.loc 2 135 0
 569 0034 0125     		movs	r5, #1
 570              	.LVL51:
ARM GAS  C:\Users\Leaned\AppData\Local\Temp\cccHDJU2.s 			page 11


 571              	.L51:
 572              	.LBB89:
 573              	.LBB88:
 574              		.loc 5 143 0
 575 0036 3046     		mov	r0, r6
 576 0038 FFF7FEFF 		bl	chSemWait
 577              	.LVL52:
 578              	.LBE88:
 579              	.LBE89:
 580              		.loc 2 141 0
 581 003c FFF7FEFF 		bl	dcmi_get_last_image_ptr
 582              	.LVL53:
 583 0040 0023     		movs	r3, #0
 584              	.LVL54:
 585              	.L48:
 586              	.LBB90:
 587              		.loc 2 147 0 discriminator 3
 588 0042 C25C     		ldrb	r2, [r0, r3]	@ zero_extendqisi2
 589 0044 C3F34E01 		ubfx	r1, r3, #1, #15
 590 0048 0233     		adds	r3, r3, #2
 591              	.LVL55:
 592 004a 22F00702 		bic	r2, r2, #7
 593              		.loc 2 144 0 discriminator 3
 594 004e B3F5A06F 		cmp	r3, #1280
 595              		.loc 2 147 0 discriminator 3
 596 0052 6254     		strb	r2, [r4, r1]
 597              		.loc 2 144 0 discriminator 3
 598 0054 F5D1     		bne	.L48
 599              	.LBE90:
 600              		.loc 2 151 0
 601 0056 2046     		mov	r0, r4
 602              	.LVL56:
 603 0058 FFF7FEFF 		bl	extract_line_width
 604              	.LVL57:
 605              		.loc 2 154 0
 606 005c 0190     		str	r0, [sp, #4]
 607 005e 18B9     		cbnz	r0, .L61
 608              		.loc 2 159 0
 609 0060 B5B9     		cbnz	r5, .L62
 610              	.LVL58:
 611              	.L50:
 612              		.loc 2 164 0
 613 0062 85F00105 		eor	r5, r5, #1
 614              	.LVL59:
 615              		.loc 2 139 0
 616 0066 E6E7     		b	.L51
 617              	.LVL60:
 618              	.L61:
 619              		.loc 2 155 0
 620 0068 07EE900A 		vmov	s15, r0	@ int
 621 006c F8EEE77A 		vcvt.f32.s32	s15, s15
 622 0070 88EE277A 		vdiv.f32	s14, s16, s15
 623 0074 88ED007A 		vstr.32	s14, [r8]
 624              		.loc 2 156 0
 625 0078 17EE100A 		vmov	r0, s14
 626              	.LVL61:
 627 007c FFF7FEFF 		bl	__aeabi_f2d
ARM GAS  C:\Users\Leaned\AppData\Local\Temp\cccHDJU2.s 			page 12


 628              	.LVL62:
 629 0080 0246     		mov	r2, r0
 630 0082 0B46     		mov	r3, r1
 631 0084 0B48     		ldr	r0, .L63+24
 632 0086 3946     		mov	r1, r7
 633 0088 FFF7FEFF 		bl	chprintf.constprop.0
 634              	.LVL63:
 635              		.loc 2 159 0
 636 008c 002D     		cmp	r5, #0
 637 008e E8D0     		beq	.L50
 638              	.L62:
 639              		.loc 2 161 0
 640 0090 4FF42071 		mov	r1, #640
 641 0094 2046     		mov	r0, r4
 642 0096 FFF7FEFF 		bl	SendUint8ToComputer
 643              	.LVL64:
 644 009a E2E7     		b	.L50
 645              	.L64:
 646              		.align	2
 647              	.L63:
 648 009c 00000000 		.word	ch
 649 00a0 00000000 		.word	__stack_chk_guard
 650 00a4 00000000 		.word	.LANCHOR5
 651 00a8 00000000 		.word	.LANCHOR1
 652 00ac 0040C444 		.word	1153712128
 653 00b0 00000000 		.word	.LC0
 654 00b4 00000000 		.word	SDU1
 655 00b8 00000000 		.word	.LANCHOR6
 656              		.cfi_endproc
 657              	.LFE259:
 658              		.size	ProcessImage, .-ProcessImage
 659              		.section	.text.get_distance_cm,"ax",%progbits
 660              		.align	1
 661              		.p2align 4,,15
 662              		.global	get_distance_cm
 663              		.syntax unified
 664              		.thumb
 665              		.thumb_func
 666              		.fpu fpv4-sp-d16
 667              		.type	get_distance_cm, %function
 668              	get_distance_cm:
 669              	.LFB260:
 670              		.loc 2 168 0
 671              		.cfi_startproc
 672              		@ args = 0, pretend = 0, frame = 8
 673              		@ frame_needed = 0, uses_anonymous_args = 0
 674 0000 00B5     		push	{lr}
 675              		.cfi_def_cfa_offset 4
 676              		.cfi_offset 14, -4
 677 0002 084B     		ldr	r3, .L69
 678              		.loc 2 169 0
 679 0004 0849     		ldr	r1, .L69+4
 680              		.loc 2 168 0
 681 0006 1A68     		ldr	r2, [r3]
 682              		.loc 2 170 0
 683 0008 91ED000A 		vldr.32	s0, [r1]
 684              		.loc 2 168 0
ARM GAS  C:\Users\Leaned\AppData\Local\Temp\cccHDJU2.s 			page 13


 685 000c 83B0     		sub	sp, sp, #12
 686              		.cfi_def_cfa_offset 16
 687              		.loc 2 168 0
 688 000e 0192     		str	r2, [sp, #4]
 689              		.loc 2 170 0
 690 0010 019A     		ldr	r2, [sp, #4]
 691 0012 1B68     		ldr	r3, [r3]
 692 0014 9A42     		cmp	r2, r3
 693 0016 02D1     		bne	.L68
 694 0018 03B0     		add	sp, sp, #12
 695              		.cfi_remember_state
 696              		.cfi_def_cfa_offset 4
 697              		@ sp needed
 698 001a 5DF804FB 		ldr	pc, [sp], #4
 699              	.L68:
 700              		.cfi_restore_state
 701 001e FFF7FEFF 		bl	__stack_chk_fail
 702              	.LVL65:
 703              	.L70:
 704 0022 00BF     		.align	2
 705              	.L69:
 706 0024 00000000 		.word	__stack_chk_guard
 707 0028 00000000 		.word	.LANCHOR6
 708              		.cfi_endproc
 709              	.LFE260:
 710              		.size	get_distance_cm, .-get_distance_cm
 711              		.section	.text.get_line_position,"ax",%progbits
 712              		.align	1
 713              		.p2align 4,,15
 714              		.global	get_line_position
 715              		.syntax unified
 716              		.thumb
 717              		.thumb_func
 718              		.fpu fpv4-sp-d16
 719              		.type	get_line_position, %function
 720              	get_line_position:
 721              	.LFB261:
 722              		.loc 2 172 0
 723              		.cfi_startproc
 724              		@ args = 0, pretend = 0, frame = 8
 725              		@ frame_needed = 0, uses_anonymous_args = 0
 726 0000 00B5     		push	{lr}
 727              		.cfi_def_cfa_offset 4
 728              		.cfi_offset 14, -4
 729 0002 074B     		ldr	r3, .L75
 730              		.loc 2 173 0
 731 0004 0749     		ldr	r1, .L75+4
 732              		.loc 2 172 0
 733 0006 1A68     		ldr	r2, [r3]
 734              		.loc 2 174 0
 735 0008 0888     		ldrh	r0, [r1]
 736              		.loc 2 172 0
 737 000a 83B0     		sub	sp, sp, #12
 738              		.cfi_def_cfa_offset 16
 739              		.loc 2 172 0
 740 000c 0192     		str	r2, [sp, #4]
 741              		.loc 2 174 0
ARM GAS  C:\Users\Leaned\AppData\Local\Temp\cccHDJU2.s 			page 14


 742 000e 019A     		ldr	r2, [sp, #4]
 743 0010 1B68     		ldr	r3, [r3]
 744 0012 9A42     		cmp	r2, r3
 745 0014 02D1     		bne	.L74
 746 0016 03B0     		add	sp, sp, #12
 747              		.cfi_remember_state
 748              		.cfi_def_cfa_offset 4
 749              		@ sp needed
 750 0018 5DF804FB 		ldr	pc, [sp], #4
 751              	.L74:
 752              		.cfi_restore_state
 753 001c FFF7FEFF 		bl	__stack_chk_fail
 754              	.LVL66:
 755              	.L76:
 756              		.align	2
 757              	.L75:
 758 0020 00000000 		.word	__stack_chk_guard
 759 0024 00000000 		.word	.LANCHOR4
 760              		.cfi_endproc
 761              	.LFE261:
 762              		.size	get_line_position, .-get_line_position
 763              		.section	.text.process_image_start,"ax",%progbits
 764              		.align	1
 765              		.p2align 4,,15
 766              		.global	process_image_start
 767              		.syntax unified
 768              		.thumb
 769              		.thumb_func
 770              		.fpu fpv4-sp-d16
 771              		.type	process_image_start, %function
 772              	process_image_start:
 773              	.LFB262:
 774              		.loc 2 176 0
 775              		.cfi_startproc
 776              		@ args = 0, pretend = 0, frame = 8
 777              		@ frame_needed = 0, uses_anonymous_args = 0
 778 0000 30B5     		push	{r4, r5, lr}
 779              		.cfi_def_cfa_offset 12
 780              		.cfi_offset 4, -12
 781              		.cfi_offset 5, -8
 782              		.cfi_offset 14, -4
 783 0002 0E4C     		ldr	r4, .L81
 784              		.loc 2 177 0
 785 0004 0E4B     		ldr	r3, .L81+4
 786              		.loc 2 176 0
 787 0006 2268     		ldr	r2, [r4]
 788              		.loc 2 177 0
 789 0008 0E48     		ldr	r0, .L81+8
 790              		.loc 2 176 0
 791 000a 85B0     		sub	sp, sp, #20
 792              		.cfi_def_cfa_offset 32
 793              		.loc 2 177 0
 794 000c 0025     		movs	r5, #0
 795              		.loc 2 176 0
 796 000e 0392     		str	r2, [sp, #12]
 797              		.loc 2 177 0
 798 0010 4FF4AF61 		mov	r1, #1400
ARM GAS  C:\Users\Leaned\AppData\Local\Temp\cccHDJU2.s 			page 15


 799 0014 4022     		movs	r2, #64
 800 0016 0095     		str	r5, [sp]
 801 0018 FFF7FEFF 		bl	chThdCreateStatic
 802              	.LVL67:
 803              		.loc 2 178 0
 804 001c 0A4B     		ldr	r3, .L81+12
 805 001e 0095     		str	r5, [sp]
 806 0020 4022     		movs	r2, #64
 807 0022 0A48     		ldr	r0, .L81+16
 808 0024 4FF41E71 		mov	r1, #632
 809 0028 FFF7FEFF 		bl	chThdCreateStatic
 810              	.LVL68:
 811              		.loc 2 179 0
 812 002c 039A     		ldr	r2, [sp, #12]
 813 002e 2368     		ldr	r3, [r4]
 814 0030 9A42     		cmp	r2, r3
 815 0032 01D1     		bne	.L80
 816 0034 05B0     		add	sp, sp, #20
 817              		.cfi_remember_state
 818              		.cfi_def_cfa_offset 12
 819              		@ sp needed
 820 0036 30BD     		pop	{r4, r5, pc}
 821              	.L80:
 822              		.cfi_restore_state
 823 0038 FFF7FEFF 		bl	__stack_chk_fail
 824              	.LVL69:
 825              	.L82:
 826              		.align	2
 827              	.L81:
 828 003c 00000000 		.word	__stack_chk_guard
 829 0040 00000000 		.word	ProcessImage
 830 0044 00000000 		.word	.LANCHOR7
 831 0048 00000000 		.word	CaptureImage
 832 004c 00000000 		.word	.LANCHOR8
 833              		.cfi_endproc
 834              	.LFE262:
 835              		.size	process_image_start, .-process_image_start
 836              		.section	.bss.distance_cm,"aw",%nobits
 837              		.align	2
 838              		.set	.LANCHOR6,. + 0
 839              		.type	distance_cm, %object
 840              		.size	distance_cm, 4
 841              	distance_cm:
 842 0000 00000000 		.space	4
 843              		.section	.bss.waCaptureImage,"aw",%nobits
 844              		.align	3
 845              		.set	.LANCHOR8,. + 0
 846              		.type	waCaptureImage, %object
 847              		.size	waCaptureImage, 632
 848              	waCaptureImage:
 849 0000 00000000 		.space	632
 849      00000000 
 849      00000000 
 849      00000000 
 849      00000000 
 850              		.section	.bss.waProcessImage,"aw",%nobits
 851              		.align	3
ARM GAS  C:\Users\Leaned\AppData\Local\Temp\cccHDJU2.s 			page 16


 852              		.set	.LANCHOR7,. + 0
 853              		.type	waProcessImage, %object
 854              		.size	waProcessImage, 1400
 855              	waProcessImage:
 856 0000 00000000 		.space	1400
 856      00000000 
 856      00000000 
 856      00000000 
 856      00000000 
 857              		.section	.data.image_ready_sem,"aw",%progbits
 858              		.align	2
 859              		.set	.LANCHOR1,. + 0
 860              		.type	image_ready_sem, %object
 861              		.size	image_ready_sem, 12
 862              	image_ready_sem:
 863 0000 00000000 		.word	image_ready_sem
 864 0004 00000000 		.word	image_ready_sem
 865 0008 00000000 		.word	0
 866              		.section	.data.last_width.11339,"aw",%progbits
 867              		.align	1
 868              		.set	.LANCHOR3,. + 0
 869              		.type	last_width.11339, %object
 870              		.size	last_width.11339, 2
 871              	last_width.11339:
 872 0000 9D00     		.short	157
 873              		.section	.data.line_position,"aw",%progbits
 874              		.align	1
 875              		.set	.LANCHOR4,. + 0
 876              		.type	line_position, %object
 877              		.size	line_position, 2
 878              	line_position:
 879 0000 4001     		.short	320
 880              		.section	.rodata.__FUNCTION__.11356,"a",%progbits
 881              		.align	2
 882              		.set	.LANCHOR0,. + 0
 883              		.type	__FUNCTION__.11356, %object
 884              		.size	__FUNCTION__.11356, 13
 885              	__FUNCTION__.11356:
 886 0000 43617074 		.ascii	"CaptureImage\000"
 886      75726549 
 886      6D616765 
 886      00
 887              		.section	.rodata.__FUNCTION__.11362,"a",%progbits
 888              		.align	2
 889              		.set	.LANCHOR5,. + 0
 890              		.type	__FUNCTION__.11362, %object
 891              		.size	__FUNCTION__.11362, 13
 892              	__FUNCTION__.11362:
 893 0000 50726F63 		.ascii	"ProcessImage\000"
 893      65737349 
 893      6D616765 
 893      00
 894              		.section	.rodata.__func__.7153,"a",%progbits
 895              		.align	2
 896              		.set	.LANCHOR2,. + 0
 897              		.type	__func__.7153, %object
 898              		.size	__func__.7153, 12
ARM GAS  C:\Users\Leaned\AppData\Local\Temp\cccHDJU2.s 			page 17


 899              	__func__.7153:
 900 0000 63685379 		.ascii	"chSysUnlock\000"
 900      73556E6C 
 900      6F636B00 
 901              		.section	.rodata.chprintf.constprop.0.str1.4,"aMS",%progbits,1
 902              		.align	2
 903              	.LC0:
 904 0000 6C617267 		.ascii	"largeur en cm = %f \012\000"
 904      65757220 
 904      656E2063 
 904      6D203D20 
 904      2566200A 
 905              		.text
 906              	.Letext0:
 907              		.file 7 "c:\\users\\leaned\\desktop\\eclipse\\eclipse_e-puck2\\tools\\gcc-arm-none-eabi-7-2017-q4-
 908              		.file 8 "c:\\users\\leaned\\desktop\\eclipse\\eclipse_e-puck2\\tools\\gcc-arm-none-eabi-7-2017-q4-
 909              		.file 9 "c:\\users\\leaned\\desktop\\eclipse\\eclipse_e-puck2\\tools\\gcc-arm-none-eabi-7-2017-q4-
 910              		.file 10 "../../lib/e-puck2_main-processor/ChibiOS//os/rt/ports/ARMCMx/compilers/GCC/chtypes.h"
 911              		.file 11 "../../lib/e-puck2_main-processor/ChibiOS//os/rt/include/chsystypes.h"
 912              		.file 12 "../../lib/e-puck2_main-processor/ChibiOS//os/rt/include/chschd.h"
 913              		.file 13 "../../lib/e-puck2_main-processor/ChibiOS//os/ext/CMSIS/include/core_cm4.h"
 914              		.file 14 "../../lib/e-puck2_main-processor/ChibiOS//os/ext/CMSIS/ST/system_stm32f4xx.h"
 915              		.file 15 "../../lib/e-puck2_main-processor/ChibiOS//os/ext/CMSIS/ST/stm32f407xx.h"
 916              		.file 16 "../../lib/e-puck2_main-processor/ChibiOS//os/rt/ports/ARMCMx/chcore.h"
 917              		.file 17 "../../lib/e-puck2_main-processor/ChibiOS//os/rt/ports/ARMCMx/chcore_v7m.h"
 918              		.file 18 "../../lib/e-puck2_main-processor/ChibiOS//os/rt/include/chdebug.h"
 919              		.file 19 "../../lib/e-puck2_main-processor/ChibiOS//os/rt/include/chtm.h"
 920              		.file 20 "../../lib/e-puck2_main-processor/ChibiOS//os/rt/include/chstats.h"
 921              		.file 21 "../../lib/e-puck2_main-processor/ChibiOS//os/rt/include/chsem.h"
 922              		.file 22 "../../lib/e-puck2_main-processor/ChibiOS//os/rt/include/chmtx.h"
 923              		.file 23 "../../lib/e-puck2_main-processor/ChibiOS//os/rt/include/chevents.h"
 924              		.file 24 "../../lib/e-puck2_main-processor/ChibiOS//os/rt/include/chqueues.h"
 925              		.file 25 "../../lib/e-puck2_main-processor/ChibiOS//os/rt/include/chstreams.h"
 926              		.file 26 "../../lib/e-puck2_main-processor/ChibiOS//os/hal/ports/STM32/STM32F4xx/stm32_dma.h"
 927              		.file 27 "../../lib/e-puck2_main-processor/ChibiOS//os/hal/include/hal_ioblock.h"
 928              		.file 28 "../../lib/e-puck2_main-processor/ChibiOS//os/hal/ports/STM32/LLD/GPIOv2/pal_lld.h"
 929              		.file 29 "../../lib/e-puck2_main-processor/ChibiOS//os/hal/include/adc.h"
 930              		.file 30 "../../lib/e-puck2_main-processor/ChibiOS//os/hal/ports/STM32/STM32F4xx/adc_lld.h"
 931              		.file 31 "../../lib/e-puck2_main-processor/ChibiOS//os/hal/include/can.h"
 932              		.file 32 "../../lib/e-puck2_main-processor/ChibiOS//os/hal/ports/STM32/LLD/can_lld.h"
 933              		.file 33 "../../lib/e-puck2_main-processor/ChibiOS//os/hal/include/dac.h"
 934              		.file 34 "../../lib/e-puck2_main-processor/ChibiOS//os/hal/ports/STM32/LLD/DACv1/dac_lld.h"
 935              		.file 35 "../../lib/e-puck2_main-processor/ChibiOS//os/hal/include/ext.h"
 936              		.file 36 "../../lib/e-puck2_main-processor/ChibiOS//os/hal/ports/STM32/LLD/ext_lld.h"
 937              		.file 37 "../../lib/e-puck2_main-processor/ChibiOS//os/hal/include/gpt.h"
 938              		.file 38 "../../lib/e-puck2_main-processor/ChibiOS//os/hal/ports/STM32/LLD/TIMv1/gpt_lld.h"
 939              		.file 39 "../../lib/e-puck2_main-processor/ChibiOS//os/hal/ports/STM32/LLD/TIMv1/stm32_tim.h"
 940              		.file 40 "../../lib/e-puck2_main-processor/ChibiOS//os/hal/include/i2c.h"
 941              		.file 41 "../../lib/e-puck2_main-processor/ChibiOS//os/hal/ports/STM32/LLD/I2Cv1/i2c_lld.h"
 942              		.file 42 "../../lib/e-puck2_main-processor/ChibiOS//os/hal/include/i2s.h"
 943              		.file 43 "../../lib/e-puck2_main-processor/ChibiOS//os/hal/ports/STM32/LLD/SPIv1/i2s_lld.h"
 944              		.file 44 "../../lib/e-puck2_main-processor/ChibiOS//os/hal/include/pwm.h"
 945              		.file 45 "../../lib/e-puck2_main-processor/ChibiOS//os/hal/ports/STM32/LLD/TIMv1/pwm_lld.h"
 946              		.file 46 "../../lib/e-puck2_main-processor/ChibiOS//os/hal/include/serial.h"
 947              		.file 47 "../../lib/e-puck2_main-processor/ChibiOS//os/hal/ports/STM32/LLD/USARTv1/serial_lld.h"
 948              		.file 48 "../../lib/e-puck2_main-processor/ChibiOS//os/hal/include/sdc.h"
 949              		.file 49 "../../lib/e-puck2_main-processor/ChibiOS//os/hal/ports/STM32/LLD/sdc_lld.h"
ARM GAS  C:\Users\Leaned\AppData\Local\Temp\cccHDJU2.s 			page 18


 950              		.file 50 "../../lib/e-puck2_main-processor/ChibiOS//os/hal/include/spi.h"
 951              		.file 51 "../../lib/e-puck2_main-processor/ChibiOS//os/hal/ports/STM32/LLD/SPIv1/spi_lld.h"
 952              		.file 52 "../../lib/e-puck2_main-processor/ChibiOS//os/hal/include/usb.h"
 953              		.file 53 "../../lib/e-puck2_main-processor/ChibiOS//os/hal/ports/STM32/LLD/OTGv1/usb_lld.h"
 954              		.file 54 "../../lib/e-puck2_main-processor/ChibiOS//os/hal/ports/STM32/LLD/OTGv1/stm32_otg.h"
 955              		.file 55 "../../lib/e-puck2_main-processor/ChibiOS//os/hal/include/serial_usb.h"
 956              		.file 56 "c:\\users\\leaned\\desktop\\eclipse\\eclipse_e-puck2\\tools\\gcc-arm-none-eabi-7-2017-q4
 957              		.file 57 "<built-in>"
 958              		.file 58 "../../lib/e-puck2_main-processor/src/usbcfg.h"
 959              		.file 59 "../../lib/e-puck2_main-processor/ChibiOS_ext/os/hal/include/../ports/STM32/STM32F4xx/dcm
 960              		.file 60 "../../lib/e-puck2_main-processor/src/camera/po8030.h"
 961              		.file 61 "../../lib/e-puck2_main-processor/src/camera/dcmi_camera.h"
 962              		.file 62 "c:\\users\\leaned\\desktop\\eclipse\\eclipse_e-puck2\\tools\\gcc-arm-none-eabi-7-2017-q4
 963              		.file 63 "c:\\users\\leaned\\desktop\\eclipse\\eclipse_e-puck2\\tools\\gcc-arm-none-eabi-7-2017-q4
 964              		.file 64 "c:\\users\\leaned\\desktop\\eclipse\\eclipse_e-puck2\\tools\\gcc-arm-none-eabi-7-2017-q4
 965              		.file 65 "../../lib/e-puck2_main-processor/src/msgbus/messagebus.h"
 966              		.file 66 "c:\\users\\leaned\\desktop\\eclipse\\eclipse_e-puck2\\tools\\gcc-arm-none-eabi-7-2017-q4
 967              		.file 67 "c:\\users\\leaned\\desktop\\eclipse\\eclipse_e-puck2\\tools\\gcc-arm-none-eabi-7-2017-q4
 968              		.file 68 "../../lib/e-puck2_main-processor/src/parameter/parameter.h"
 969              		.file 69 "./main.h"
 970              		.file 70 "../../lib/e-puck2_main-processor/ChibiOS//os/rt/include/chthreads.h"